target datalayout = "e-m:e-p270:32:32-p271:32:32-p272:64:64-i64:64-i128:128-f80:128-n8:16:32:64-S128"
target triple = "x86_64-pc-linux-gnu"

%struct.Dar_Lib_t_ = type { ptr, i32, i32, [222 x i32], [222 x ptr], ptr, i32, ptr, [222 x ptr], ptr, [222 x ptr], ptr, [222 x ptr], [222 x i32], [222 x ptr], ptr, i32, i32, i32, [222 x i32], [222 x ptr], ptr, i32, [222 x i32], [222 x ptr], ptr, i32, ptr, i32, ptr, ptr, ptr, ptr, ptr }

; Function Attrs: nounwind uwtable
define void @Dar_LibCreateData(ptr noundef %0, i32 noundef %1) #0 {
  %3 = alloca ptr, align 8
  %4 = alloca i32, align 4
  store ptr %0, ptr %3, align 8
  store i32 %1, ptr %4, align 4
  %5 = load ptr, ptr %3, align 8
  %6 = getelementptr inbounds %struct.Dar_Lib_t_, ptr %5, i32 0, i32 28
  %7 = load i32, ptr %6, align 8
  %8 = load i32, ptr %4, align 4
  %9 = icmp eq i32 %7, %8
  br i1 %9, label %10, label %11

10:                                               ; preds = %2
  br label %39

11:                                               ; preds = %2
  %12 = load ptr, ptr %3, align 8
  %13 = getelementptr inbounds %struct.Dar_Lib_t_, ptr %12, i32 0, i32 27
  %14 = load ptr, ptr %13, align 8
  %15 = icmp ne ptr %14, null
  br i1 %15, label %16, label %22

16:                                               ; preds = %11
  %17 = load ptr, ptr %3, align 8
  %18 = getelementptr inbounds %struct.Dar_Lib_t_, ptr %17, i32 0, i32 27
  %19 = load ptr, ptr %18, align 8
  call void @free(ptr noundef %19) #9
  %20 = load ptr, ptr %3, align 8
  %21 = getelementptr inbounds %struct.Dar_Lib_t_, ptr %20, i32 0, i32 27
  store ptr null, ptr %21, align 8
  br label %23

22:                                               ; preds = %11
  br label %23

23:                                               ; preds = %22, %16
  %24 = load i32, ptr %4, align 4
  %25 = load ptr, ptr %3, align 8
  %26 = getelementptr inbounds %struct.Dar_Lib_t_, ptr %25, i32 0, i32 28
  store i32 %24, ptr %26, align 8
  %27 = load i32, ptr %4, align 4
  %28 = sext i32 %27 to i64
  %29 = mul i64 24, %28
  %30 = call noalias ptr @malloc(i64 noundef %29) #8
  %31 = load ptr, ptr %3, align 8
  %32 = getelementptr inbounds %struct.Dar_Lib_t_, ptr %31, i32 0, i32 27
  store ptr %30, ptr %32, align 8
  %33 = load ptr, ptr %3, align 8
  %34 = getelementptr inbounds %struct.Dar_Lib_t_, ptr %33, i32 0, i32 27
  %35 = load ptr, ptr %34, align 8
  %36 = load i32, ptr %4, align 4
  %37 = sext i32 %36 to i64
  %38 = mul i64 24, %37
  call void @llvm.memset.p0.i64(ptr align 8 %35, i8 0, i64 %38, i1 false)
  br label %39

39:                                               ; preds = %23, %10
  ret void
}