; Function Attrs: mustprogress nounwind willreturn uwtable
define void @Dar_LibCreateData(ptr noundef captures(none) %0, i32 noundef %1) local_unnamed_addr #4 {
  %3 = getelementptr inbounds nuw i8, ptr %0, i64 16104
  %4 = load i32, ptr %3, align 8
  %5 = icmp eq i32 %4, %1
  br i1 %5, label %13, label %6

6:                                                ; preds = %2
  %7 = getelementptr inbounds nuw i8, ptr %0, i64 16096
  %8 = load ptr, ptr %7, align 8
  %.not = icmp eq ptr %8, null
  br i1 %.not, label %10, label %9

9:                                                ; preds = %6
  tail call void @free(ptr noundef nonnull %8) #20
  br label %10

10:                                               ; preds = %6, %9
  store i32 %1, ptr %3, align 8
  %11 = sext i32 %1 to i64
  %12 = mul nsw i64 %11, 24
  %calloc = tail call ptr @calloc(i64 1, i64 %12)
  store ptr %calloc, ptr %7, align 8
  br label %13

13:                                               ; preds = %2, %10
  ret void
}